target datalayout = "e-m:e-p270:32:32-p271:32:32-p272:64:64-i64:64-i128:128-f80:128-n8:16:32:64-S128"
target triple = "x86_64-pc-linux-gnu"

%struct._object = type { %union.anon, ptr }
%union.anon = type { i64 }
%struct.if_nameindex = type { i32, ptr }
%struct.anon = type { i32, i32 }

@PyExc_OSError = external global ptr, align 8
@.str.117 = private unnamed_addr constant [4 x i8] c"IO&\00", align 1

; Function Attrs: alwaysinline nounwind uwtable
define internal i32 @_Py_IsImmortal(ptr noundef %0) #8 {
  %2 = alloca ptr, align 8
  store ptr %0, ptr %2, align 8, !tbaa !3
  %3 = load ptr, ptr %2, align 8, !tbaa !3
  %4 = getelementptr inbounds nuw %struct._object, ptr %3, i32 0, i32 0
  %5 = getelementptr inbounds nuw %struct.anon, ptr %4, i32 0, i32 0
  %6 = load i32, ptr %5, align 8, !tbaa !35
  %7 = icmp slt i32 %6, 0
  %8 = zext i1 %7 to i32
  ret i32 %8
}

; Function Attrs: inlinehint nounwind uwtable
define internal void @Py_XDECREF(ptr noundef %0) #3 {
  %2 = alloca ptr, align 8
  store ptr %0, ptr %2, align 8, !tbaa !3
  %3 = load ptr, ptr %2, align 8, !tbaa !3
  %4 = icmp ne ptr %3, null
  br i1 %4, label %5, label %7

5:                                                ; preds = %1
  %6 = load ptr, ptr %2, align 8, !tbaa !3
  call void @Py_DECREF(ptr noundef %6)
  br label %7

7:                                                ; preds = %5, %1
  ret void
}

; Function Attrs: alwaysinline nounwind uwtable
define internal void @Py_DECREF(ptr noundef %0) #8 {
  %2 = alloca ptr, align 8
  store ptr %0, ptr %2, align 8, !tbaa !3
  %3 = load ptr, ptr %2, align 8, !tbaa !3
  %4 = call i32 @_Py_IsImmortal(ptr noundef %3)
  %5 = icmp ne i32 %4, 0
  br i1 %5, label %6, label %7

6:                                                ; preds = %1
  br label %16

7:                                                ; preds = %1
  %8 = load ptr, ptr %2, align 8, !tbaa !3
  %9 = getelementptr inbounds nuw %struct._object, ptr %8, i32 0, i32 0
  %10 = getelementptr inbounds nuw %struct.anon, ptr %9, i32 0, i32 0
  %11 = load i32, ptr %10, align 8, !tbaa !35
  %12 = add i32 %11, -1
  store i32 %12, ptr %10, align 8, !tbaa !35
  %13 = icmp eq i32 %12, 0
  br i1 %13, label %14, label %16

14:                                               ; preds = %7
  %15 = load ptr, ptr %2, align 8, !tbaa !3
  call void @_Py_Dealloc(ptr noundef %15)
  br label %16

16:                                               ; preds = %6, %14, %7
  ret void
}

; Function Attrs: nounwind uwtable
define internal ptr @socket_if_nameindex(ptr noundef %0, ptr noundef %1) #0 {
  %3 = alloca ptr, align 8
  %4 = alloca ptr, align 8
  %5 = alloca ptr, align 8
  %6 = alloca ptr, align 8
  %7 = alloca i32, align 4
  %8 = alloca i32, align 4
  %9 = alloca ptr, align 8
  %10 = alloca ptr, align 8
  store ptr %0, ptr %4, align 8, !tbaa !3
  store ptr %1, ptr %5, align 8, !tbaa !3
  call void @llvm.lifetime.start.p0(i64 8, ptr %6) #10
  %11 = call ptr @PyList_New(i64 noundef 0)
  store ptr %11, ptr %6, align 8, !tbaa !3
  %12 = load ptr, ptr %6, align 8, !tbaa !3
  %13 = icmp eq ptr %12, null
  br i1 %13, label %14, label %15

14:                                               ; preds = %2
  store ptr null, ptr %3, align 8
  store i32 1, ptr %7, align 4
  br label %74

15:                                               ; preds = %2
  call void @llvm.lifetime.start.p0(i64 4, ptr %8) #10
  call void @llvm.lifetime.start.p0(i64 8, ptr %9) #10
  %16 = call ptr @if_nameindex() #10
  store ptr %16, ptr %9, align 8, !tbaa !82
  %17 = load ptr, ptr %9, align 8, !tbaa !82
  %18 = icmp eq ptr %17, null
  br i1 %18, label %19, label %23

19:                                               ; preds = %15
  %20 = load ptr, ptr @PyExc_OSError, align 8, !tbaa !3
  %21 = call ptr @PyErr_SetFromErrno(ptr noundef %20)
  %22 = load ptr, ptr %6, align 8, !tbaa !3
  call void @Py_DECREF(ptr noundef %22)
  store ptr null, ptr %3, align 8
  store i32 1, ptr %7, align 4
  br label %73

23:                                               ; preds = %15
  store i32 0, ptr %8, align 4, !tbaa !15
  br label %24

24:                                               ; preds = %67, %23
  %25 = load ptr, ptr %9, align 8, !tbaa !82
  %26 = load i32, ptr %8, align 4, !tbaa !15
  %27 = sext i32 %26 to i64
  %28 = getelementptr %struct.if_nameindex, ptr %25, i64 %27
  %29 = getelementptr inbounds nuw %struct.if_nameindex, ptr %28, i32 0, i32 0
  %30 = load i32, ptr %29, align 8, !tbaa !84
  %31 = icmp ne i32 %30, 0
  br i1 %31, label %32, label %35

32:                                               ; preds = %24
  %33 = load i32, ptr %8, align 4, !tbaa !15
  %34 = icmp slt i32 %33, 2147483647
  br label %35

35:                                               ; preds = %32, %24
  %36 = phi i1 [ false, %24 ], [ %34, %32 ]
  br i1 %36, label %37, label %70

37:                                               ; preds = %35
  call void @llvm.lifetime.start.p0(i64 8, ptr %10) #10
  %38 = load ptr, ptr %9, align 8, !tbaa !82
  %39 = load i32, ptr %8, align 4, !tbaa !15
  %40 = sext i32 %39 to i64
  %41 = getelementptr %struct.if_nameindex, ptr %38, i64 %40
  %42 = getelementptr inbounds nuw %struct.if_nameindex, ptr %41, i32 0, i32 0
  %43 = load i32, ptr %42, align 8, !tbaa !84
  %44 = load ptr, ptr %9, align 8, !tbaa !82
  %45 = load i32, ptr %8, align 4, !tbaa !15
  %46 = sext i32 %45 to i64
  %47 = getelementptr %struct.if_nameindex, ptr %44, i64 %46
  %48 = getelementptr inbounds nuw %struct.if_nameindex, ptr %47, i32 0, i32 1
  %49 = load ptr, ptr %48, align 8, !tbaa !86
  %50 = call ptr (ptr, ...) @Py_BuildValue(ptr noundef @.str.117, i32 noundef %43, ptr noundef @PyUnicode_DecodeFSDefault, ptr noundef %49)
  store ptr %50, ptr %10, align 8, !tbaa !3
  %51 = load ptr, ptr %10, align 8, !tbaa !3
  %52 = icmp eq ptr %51, null
  br i1 %52, label %58, label %53

53:                                               ; preds = %37
  %54 = load ptr, ptr %6, align 8, !tbaa !3
  %55 = load ptr, ptr %10, align 8, !tbaa !3
  %56 = call i32 @PyList_Append(ptr noundef %54, ptr noundef %55)
  %57 = icmp eq i32 %56, -1
  br i1 %57, label %58, label %62

58:                                               ; preds = %53, %37
  %59 = load ptr, ptr %10, align 8, !tbaa !3
  call void @Py_XDECREF(ptr noundef %59)
  %60 = load ptr, ptr %6, align 8, !tbaa !3
  call void @Py_DECREF(ptr noundef %60)
  %61 = load ptr, ptr %9, align 8, !tbaa !82
  call void @if_freenameindex(ptr noundef %61) #10
  store ptr null, ptr %3, align 8
  store i32 1, ptr %7, align 4
  br label %64

62:                                               ; preds = %53
  %63 = load ptr, ptr %10, align 8, !tbaa !3
  call void @Py_DECREF(ptr noundef %63)
  store i32 0, ptr %7, align 4
  br label %64

64:                                               ; preds = %62, %58
  call void @llvm.lifetime.end.p0(i64 8, ptr %10) #10
  %65 = load i32, ptr %7, align 4
  switch i32 %65, label %73 [
    i32 0, label %66
  ]

66:                                               ; preds = %64
  br label %67

67:                                               ; preds = %66
  %68 = load i32, ptr %8, align 4, !tbaa !15
  %69 = add i32 %68, 1
  store i32 %69, ptr %8, align 4, !tbaa !15
  br label %24, !llvm.loop !87

70:                                               ; preds = %35
  %71 = load ptr, ptr %9, align 8, !tbaa !82
  call void @if_freenameindex(ptr noundef %71) #10
  %72 = load ptr, ptr %6, align 8, !tbaa !3
  store ptr %72, ptr %3, align 8
  store i32 1, ptr %7, align 4
  br label %73

73:                                               ; preds = %70, %64, %19
  call void @llvm.lifetime.end.p0(i64 8, ptr %9) #10
  call void @llvm.lifetime.end.p0(i64 4, ptr %8) #10
  br label %74

74:                                               ; preds = %73, %14
  call void @llvm.lifetime.end.p0(i64 8, ptr %6) #10
  %75 = load ptr, ptr %3, align 8
  ret ptr %75
}