; Function Attrs: nounwind uwtable
define internal ptr @socket_if_nameindex(ptr readnone captures(none) %0, ptr readnone captures(none) %1) #0 {
  %3 = tail call ptr @PyList_New(i64 noundef 0) #13
  %4 = icmp eq ptr %3, null
  br i1 %4, label %Py_DECREF.exit, label %5

5:                                                ; preds = %2
  %6 = tail call ptr @if_nameindex() #13
  %7 = icmp eq ptr %6, null
  br i1 %7, label %9, label %.preheader

.preheader:                                       ; preds = %5
  %8 = load i32, ptr %6, align 8, !tbaa !68
  %.not = icmp eq i32 %8, 0
  br i1 %.not, label %._crit_edge, label %.lr.ph

9:                                                ; preds = %5
  %10 = load ptr, ptr @PyExc_OSError, align 8, !tbaa !19
  %11 = tail call ptr @PyErr_SetFromErrno(ptr noundef %10) #13
  %12 = load i32, ptr %3, align 8, !tbaa !18
  %.not.i = icmp sgt i32 %12, -1
  br i1 %.not.i, label %13, label %Py_DECREF.exit

13:                                               ; preds = %9
  %14 = add nsw i32 %12, -1
  store i32 %14, ptr %3, align 8, !tbaa !18
  %15 = icmp eq i32 %14, 0
  br i1 %15, label %16, label %Py_DECREF.exit

16:                                               ; preds = %13
  tail call void @_Py_Dealloc(ptr noundef nonnull %3) #13
  br label %Py_DECREF.exit

.lr.ph:                                           ; preds = %.preheader, %Py_DECREF.exit31
  %indvars.iv = phi i64 [ %indvars.iv.next, %Py_DECREF.exit31 ], [ 0, %.preheader ]
  %17 = phi i32 [ %41, %Py_DECREF.exit31 ], [ %8, %.preheader ]
  %18 = getelementptr %struct.if_nameindex, ptr %6, i64 %indvars.iv, i32 1
  %19 = load ptr, ptr %18, align 8, !tbaa !70
  %20 = tail call ptr (ptr, ...) @Py_BuildValue(ptr noundef nonnull @.str.117, i32 noundef %17, ptr noundef nonnull @PyUnicode_DecodeFSDefault, ptr noundef %19) #13
  %21 = icmp eq ptr %20, null
  br i1 %21, label %.critedge, label %22

22:                                               ; preds = %.lr.ph
  %23 = tail call i32 @PyList_Append(ptr noundef nonnull %3, ptr noundef nonnull %20) #13
  %24 = icmp eq i32 %23, -1
  %25 = load i32, ptr %20, align 8, !tbaa !18
  %.not.i.i = icmp sgt i32 %25, -1
  br i1 %24, label %.split23, label %35

.split23:                                         ; preds = %22
  br i1 %.not.i.i, label %26, label %.critedge

26:                                               ; preds = %.split23
  %27 = add nsw i32 %25, -1
  store i32 %27, ptr %20, align 8, !tbaa !18
  %28 = icmp eq i32 %27, 0
  br i1 %28, label %29, label %.critedge

29:                                               ; preds = %26
  tail call void @_Py_Dealloc(ptr noundef nonnull %20) #13
  br label %.critedge

.critedge:                                        ; preds = %.lr.ph, %29, %26, %.split23
  %30 = load i32, ptr %3, align 8, !tbaa !18
  %.not.i28 = icmp sgt i32 %30, -1
  br i1 %.not.i28, label %31, label %Py_DECREF.exit29

31:                                               ; preds = %.critedge
  %32 = add nsw i32 %30, -1
  store i32 %32, ptr %3, align 8, !tbaa !18
  %33 = icmp eq i32 %32, 0
  br i1 %33, label %34, label %Py_DECREF.exit29

34:                                               ; preds = %31
  tail call void @_Py_Dealloc(ptr noundef nonnull %3) #13
  br label %Py_DECREF.exit29

Py_DECREF.exit29:                                 ; preds = %.critedge, %31, %34
  tail call void @if_freenameindex(ptr noundef nonnull %6) #13
  br label %Py_DECREF.exit

35:                                               ; preds = %22
  br i1 %.not.i.i, label %36, label %Py_DECREF.exit31

36:                                               ; preds = %35
  %37 = add nsw i32 %25, -1
  store i32 %37, ptr %20, align 8, !tbaa !18
  %38 = icmp eq i32 %37, 0
  br i1 %38, label %39, label %Py_DECREF.exit31

39:                                               ; preds = %36
  tail call void @_Py_Dealloc(ptr noundef nonnull %20) #13
  br label %Py_DECREF.exit31

Py_DECREF.exit31:                                 ; preds = %35, %36, %39
  %indvars.iv.next = add nuw nsw i64 %indvars.iv, 1
  %40 = getelementptr %struct.if_nameindex, ptr %6, i64 %indvars.iv.next
  %41 = load i32, ptr %40, align 8, !tbaa !68
  %42 = icmp ne i32 %41, 0
  %43 = icmp ne i64 %indvars.iv.next, 2147483647
  %44 = and i1 %43, %42
  br i1 %44, label %.lr.ph, label %._crit_edge, !llvm.loop !71

._crit_edge:                                      ; preds = %Py_DECREF.exit31, %.preheader
  tail call void @if_freenameindex(ptr noundef nonnull %6) #13
  br label %Py_DECREF.exit

Py_DECREF.exit:                                   ; preds = %16, %13, %9, %._crit_edge, %Py_DECREF.exit29, %2
  %.0 = phi ptr [ null, %2 ], [ %3, %._crit_edge ], [ null, %Py_DECREF.exit29 ], [ null, %9 ], [ null, %13 ], [ null, %16 ]
  ret ptr %.0
}